; Function Attrs: mustprogress uwtable
define void @_Z25ulocimp_forLanguageTag_77PKciPiR10UErrorCode(ptr dead_on_unwind noalias writable sret(%"class.icu_77::CharString") align 8 %0, ptr noundef readonly captures(none) %1, i32 noundef %2, ptr noundef %3, ptr noundef nonnull align 4 dereferenceable(4) %4) local_unnamed_addr #1 personality ptr @__gxx_personality_v0 {
  %6 = alloca %"class.icu_77::CharStringByteSink", align 8
  tail call void @llvm.experimental.noalias.scope.decl(metadata !105)
  %7 = load i32, ptr %4, align 4, !tbaa !13, !noalias !105
  %8 = icmp slt i32 %7, 1
  tail call void @_ZN6icu_7715MaybeStackArrayIcLi40EEC1Ev(ptr noundef nonnull align 8 dereferenceable(60) %0)
  %9 = getelementptr inbounds nuw i8, ptr %0, i64 56
  store i32 0, ptr %9, align 8, !tbaa !31, !alias.scope !105
  %10 = load ptr, ptr %0, align 8, !tbaa !3, !alias.scope !105
  store i8 0, ptr %10, align 1, !tbaa !15
  br i1 %8, label %11, label %"_ZN6icu_7712ByteSinkUtil23viaByteSinkToCharStringIZ25ulocimp_forLanguageTag_77PKciPiR10UErrorCodeE3$_0vEENS_10CharStringEOT_S6_.exit"

11:                                               ; preds = %5
  call void @llvm.lifetime.start.p0(i64 16, ptr nonnull %6) #17, !noalias !105
  invoke void @_ZN6icu_7718CharStringByteSinkC1EPNS_10CharStringE(ptr noundef nonnull align 8 dereferenceable(16) %6, ptr noundef nonnull align 8 %0)
          to label %12 unwind label %13

12:                                               ; preds = %11
  invoke void @_Z25ulocimp_forLanguageTag_77PKciRN6icu_778ByteSinkEPiR10UErrorCode(ptr noundef %1, i32 noundef %2, ptr noundef nonnull align 8 dereferenceable(8) %6, ptr noundef %3, ptr noundef nonnull align 4 dereferenceable(4) %4)
          to label %"_ZZ25ulocimp_forLanguageTag_77PKciPiR10UErrorCodeENK3$_0clERN6icu_778ByteSinkES3_.exit.i" unwind label %15

"_ZZ25ulocimp_forLanguageTag_77PKciPiR10UErrorCodeENK3$_0clERN6icu_778ByteSinkES3_.exit.i": ; preds = %12
  call void @_ZN6icu_7718CharStringByteSinkD1Ev(ptr noundef nonnull align 8 dereferenceable(16) %6) #17
  call void @llvm.lifetime.end.p0(i64 16, ptr nonnull %6) #17, !noalias !105
  br label %"_ZN6icu_7712ByteSinkUtil23viaByteSinkToCharStringIZ25ulocimp_forLanguageTag_77PKciPiR10UErrorCodeE3$_0vEENS_10CharStringEOT_S6_.exit"

13:                                               ; preds = %11
  %14 = landingpad { ptr, i32 }
          cleanup
  br label %17

15:                                               ; preds = %12
  %16 = landingpad { ptr, i32 }
          cleanup
  call void @_ZN6icu_7718CharStringByteSinkD1Ev(ptr noundef nonnull align 8 dereferenceable(16) %6) #17
  br label %17

17:                                               ; preds = %15, %13
  %.pn.i = phi { ptr, i32 } [ %16, %15 ], [ %14, %13 ]
  call void @llvm.lifetime.end.p0(i64 16, ptr nonnull %6) #17, !noalias !105
  call void @_ZN6icu_7715MaybeStackArrayIcLi40EED1Ev(ptr noundef nonnull align 8 dereferenceable(60) %0) #17
  resume { ptr, i32 } %.pn.i

"_ZN6icu_7712ByteSinkUtil23viaByteSinkToCharStringIZ25ulocimp_forLanguageTag_77PKciPiR10UErrorCodeE3$_0vEENS_10CharStringEOT_S6_.exit": ; preds = %5, %"_ZZ25ulocimp_forLanguageTag_77PKciPiR10UErrorCodeENK3$_0clERN6icu_778ByteSinkES3_.exit.i"
  ret void
}